; Function Attrs: mustprogress nofree norecurse nosync nounwind willreturn memory(argmem: readwrite) uwtable
define void @_ZN10OpenSubdiv6v3_6_03Far15TopologyRefiner15updateInventoryERKNS0_3Vtr8internal5LevelE(ptr nocapture noundef nonnull align 8 dereferenceable(120) %0, ptr nocapture noundef nonnull readonly align 8 dereferenceable(480) %1) local_unnamed_addr #9 align 2 {
  %3 = getelementptr inbounds nuw i8, ptr %1, i64 8
  %4 = load i32, ptr %3, align 8
  %5 = getelementptr inbounds nuw i8, ptr %0, i64 20
  %6 = load i32, ptr %5, align 4
  %7 = add nsw i32 %6, %4
  store i32 %7, ptr %5, align 4
  %8 = getelementptr inbounds nuw i8, ptr %1, i64 4
  %9 = load i32, ptr %8, align 4
  %10 = getelementptr inbounds nuw i8, ptr %0, i64 24
  %11 = load i32, ptr %10, align 8
  %12 = add nsw i32 %11, %9
  store i32 %12, ptr %10, align 8
  %13 = load i32, ptr %1, align 8
  %14 = getelementptr inbounds nuw i8, ptr %0, i64 28
  %15 = load i32, ptr %14, align 4
  %16 = add nsw i32 %15, %13
  store i32 %16, ptr %14, align 4
  %17 = getelementptr inbounds nuw i8, ptr %1, i64 48
  %18 = getelementptr inbounds i8, ptr %1, i64 56
  %19 = load ptr, ptr %18, align 8
  %20 = load ptr, ptr %17, align 8
  %21 = ptrtoint ptr %19 to i64
  %22 = ptrtoint ptr %20 to i64
  %23 = sub i64 %21, %22
  %24 = lshr exact i64 %23, 2
  %25 = trunc i64 %24 to i32
  %26 = getelementptr inbounds nuw i8, ptr %0, i64 32
  %27 = load i32, ptr %26, align 8
  %28 = add nsw i32 %27, %25
  store i32 %28, ptr %26, align 8
  %29 = getelementptr inbounds nuw i8, ptr %0, i64 36
  %30 = getelementptr inbounds nuw i8, ptr %1, i64 20
  %31 = load i32, ptr %30, align 4
  %32 = load i32, ptr %29, align 4
  %.sroa.speculated = tail call i32 @llvm.smax.i32(i32 %32, i32 %31)
  store i32 %.sroa.speculated, ptr %29, align 4
  ret void
}